target datalayout = "e-m:e-p270:32:32-p271:32:32-p272:64:64-i64:64-i128:128-f80:128-n8:16:32:64-S128"
target triple = "x86_64-pc-linux-gnu"

@.str.12 = private unnamed_addr constant [5 x i8] c"pad \00", align 1

; Function Attrs: nounwind uwtable
define internal zeroext i1 @GetSteamVirtualGamepadSlot(i32 noundef %0, ptr noundef %1) #0 {
  %3 = alloca i1, align 1
  %4 = alloca i32, align 4
  %5 = alloca ptr, align 8
  %6 = alloca [128 x i8], align 16
  %7 = alloca ptr, align 8
  %8 = alloca i32, align 4
  store i32 %0, ptr %4, align 4
  store ptr %1, ptr %5, align 8
  call void @llvm.lifetime.start.p0(i64 128, ptr %6) #11
  %9 = load i32, ptr %4, align 4
  %10 = getelementptr inbounds [128 x i8], ptr %6, i64 0, i64 0
  %11 = call i32 (i32, i64, ...) @ioctl(i32 noundef %9, i64 noundef 2155889926, ptr noundef %10) #11
  %12 = icmp sgt i32 %11, 0
  br i1 %12, label %13, label %35

13:                                               ; preds = %2
  call void @llvm.lifetime.start.p0(i64 8, ptr %7) #11
  %14 = getelementptr inbounds [128 x i8], ptr %6, i64 0, i64 0
  %15 = call ptr @SDL_strstr_REAL(ptr noundef %14, ptr noundef @.str.12)
  store ptr %15, ptr %7, align 8
  %16 = load ptr, ptr %7, align 8
  %17 = icmp ne ptr %16, null
  br i1 %17, label %18, label %31

18:                                               ; preds = %13
  %19 = load ptr, ptr %7, align 8
  %20 = getelementptr inbounds i8, ptr %19, i64 4
  store ptr %20, ptr %7, align 8
  %21 = load ptr, ptr %7, align 8
  %22 = load i8, ptr %21, align 1
  %23 = sext i8 %22 to i32
  %24 = call i32 @SDL_isdigit_REAL(i32 noundef %23)
  %25 = icmp ne i32 %24, 0
  br i1 %25, label %26, label %30

26:                                               ; preds = %18
  %27 = load ptr, ptr %7, align 8
  %28 = call i32 @SDL_atoi_REAL(ptr noundef %27)
  %29 = load ptr, ptr %5, align 8
  store i32 %28, ptr %29, align 4
  store i1 true, ptr %3, align 1
  store i32 1, ptr %8, align 4
  br label %32

30:                                               ; preds = %18
  br label %31

31:                                               ; preds = %30, %13
  store i32 0, ptr %8, align 4
  br label %32

32:                                               ; preds = %31, %26
  call void @llvm.lifetime.end.p0(i64 8, ptr %7) #11
  %33 = load i32, ptr %8, align 4
  switch i32 %33, label %36 [
    i32 0, label %34
  ]

34:                                               ; preds = %32
  br label %35

35:                                               ; preds = %34, %2
  store i1 false, ptr %3, align 1
  store i32 1, ptr %8, align 4
  br label %36

36:                                               ; preds = %35, %32
  call void @llvm.lifetime.end.p0(i64 128, ptr %6) #11
  %37 = load i1, ptr %3, align 1
  ret i1 %37
}