; Function Attrs: nounwind uwtable
define internal fastcc void @GetSteamVirtualGamepadSlot(i32 noundef %0, ptr noundef nonnull writeonly captures(none) %1) unnamed_addr #0 {
  %3 = alloca [128 x i8], align 16
  call void @llvm.lifetime.start.p0(i64 128, ptr nonnull %3) #18
  %4 = call i32 (i32, i64, ...) @ioctl(i32 noundef %0, i64 noundef 2155889926, ptr noundef nonnull %3) #18
  %5 = icmp sgt i32 %4, 0
  br i1 %5, label %6, label %14

6:                                                ; preds = %2
  %7 = call ptr @SDL_strstr_REAL(ptr noundef nonnull %3, ptr noundef nonnull @.str.12) #18
  %.not = icmp eq ptr %7, null
  br i1 %.not, label %14, label %8

8:                                                ; preds = %6
  %9 = getelementptr inbounds nuw i8, ptr %7, i64 4
  %10 = load i8, ptr %9, align 1
  %11 = sext i8 %10 to i32
  %12 = call i32 @SDL_isdigit_REAL(i32 noundef %11) #18
  %.not9 = icmp eq i32 %12, 0
  br i1 %.not9, label %14, label %.critedge

.critedge:                                        ; preds = %8
  %13 = call i32 @SDL_atoi_REAL(ptr noundef nonnull %9) #18
  store i32 %13, ptr %1, align 4
  br label %14

14:                                               ; preds = %2, %6, %8, %.critedge
  call void @llvm.lifetime.end.p0(i64 128, ptr nonnull %3) #18
  ret void
}